target datalayout = "e-m:e-p270:32:32-p271:32:32-p272:64:64-i64:64-i128:128-f80:128-n8:16:32:64-S128"
target triple = "x86_64-pc-linux-gnu"

%struct.GLNVGcontext = type { %struct.GLNVGshader, ptr, [2 x float], i32, i32, i32, i32, i32, i32, i32, i32, ptr, i32, i32, ptr, i32, i32, ptr, i32, i32, ptr, i32, i32, i32, i32, i32, i32, i32, %struct.GLNVGblend }
%struct.GLNVGshader = type { i32, i32, i32, [3 x i32] }
%struct.GLNVGblend = type { i32, i32, i32, i32 }
%struct.GLNVGtexture = type { i32, i32, i32, i32, i32, i32 }

@.str.18 = private unnamed_addr constant [21 x i8] c"Error %08x after %s\0A\00", align 1
@.str.31 = private unnamed_addr constant [14 x i8] c"tex paint tex\00", align 1

; Function Attrs: mustprogress uwtable
define internal void @_ZL17glnvg__checkErrorP12GLNVGcontextPKc(ptr noundef %0, ptr noundef %1) #4 {
  %3 = alloca ptr, align 8
  %4 = alloca ptr, align 8
  %5 = alloca i32, align 4
  store ptr %0, ptr %3, align 8
  store ptr %1, ptr %4, align 8
  %6 = load ptr, ptr %3, align 8
  %7 = getelementptr inbounds %struct.GLNVGcontext, ptr %6, i32 0, i32 10
  %8 = load i32, ptr %7, align 4
  %9 = and i32 %8, 4
  %10 = icmp eq i32 %9, 0
  br i1 %10, label %11, label %12

11:                                               ; preds = %2
  br label %20

12:                                               ; preds = %2
  %13 = call i32 @glGetError()
  store i32 %13, ptr %5, align 4
  %14 = load i32, ptr %5, align 4
  %15 = icmp ne i32 %14, 0
  br i1 %15, label %16, label %20

16:                                               ; preds = %12
  %17 = load i32, ptr %5, align 4
  %18 = load ptr, ptr %4, align 8
  %19 = call i32 (ptr, ...) @printf(ptr noundef @.str.18, i32 noundef %17, ptr noundef %18)
  br label %20

20:                                               ; preds = %16, %12, %11
  ret void
}

; Function Attrs: mustprogress uwtable
define internal void @_ZL18glnvg__bindTextureP12GLNVGcontextj(ptr noundef %0, i32 noundef %1) #4 {
  %3 = alloca ptr, align 8
  %4 = alloca i32, align 4
  store ptr %0, ptr %3, align 8
  store i32 %1, ptr %4, align 4
  %5 = load ptr, ptr %3, align 8
  %6 = getelementptr inbounds %struct.GLNVGcontext, ptr %5, i32 0, i32 23
  %7 = load i32, ptr %6, align 8
  %8 = load i32, ptr %4, align 4
  %9 = icmp ne i32 %7, %8
  br i1 %9, label %10, label %15

10:                                               ; preds = %2
  %11 = load i32, ptr %4, align 4
  %12 = load ptr, ptr %3, align 8
  %13 = getelementptr inbounds %struct.GLNVGcontext, ptr %12, i32 0, i32 23
  store i32 %11, ptr %13, align 8
  %14 = load i32, ptr %4, align 4
  call void @glBindTexture(i32 noundef 3553, i32 noundef %14)
  br label %15

15:                                               ; preds = %10, %2
  ret void
}

; Function Attrs: mustprogress nounwind uwtable
define internal noundef ptr @_ZL18glnvg__findTextureP12GLNVGcontexti(ptr noundef %0, i32 noundef %1) #7 {
  %3 = alloca ptr, align 8
  %4 = alloca ptr, align 8
  %5 = alloca i32, align 4
  %6 = alloca i32, align 4
  store ptr %0, ptr %4, align 8
  store i32 %1, ptr %5, align 4
  store i32 0, ptr %6, align 4
  br label %7

7:                                                ; preds = %32, %2
  %8 = load i32, ptr %6, align 4
  %9 = load ptr, ptr %4, align 8
  %10 = getelementptr inbounds %struct.GLNVGcontext, ptr %9, i32 0, i32 3
  %11 = load i32, ptr %10, align 8
  %12 = icmp slt i32 %8, %11
  br i1 %12, label %13, label %35

13:                                               ; preds = %7
  %14 = load ptr, ptr %4, align 8
  %15 = getelementptr inbounds %struct.GLNVGcontext, ptr %14, i32 0, i32 1
  %16 = load ptr, ptr %15, align 8
  %17 = load i32, ptr %6, align 4
  %18 = sext i32 %17 to i64
  %19 = getelementptr inbounds %struct.GLNVGtexture, ptr %16, i64 %18
  %20 = getelementptr inbounds %struct.GLNVGtexture, ptr %19, i32 0, i32 0
  %21 = load i32, ptr %20, align 4
  %22 = load i32, ptr %5, align 4
  %23 = icmp eq i32 %21, %22
  br i1 %23, label %24, label %31

24:                                               ; preds = %13
  %25 = load ptr, ptr %4, align 8
  %26 = getelementptr inbounds %struct.GLNVGcontext, ptr %25, i32 0, i32 1
  %27 = load ptr, ptr %26, align 8
  %28 = load i32, ptr %6, align 4
  %29 = sext i32 %28 to i64
  %30 = getelementptr inbounds %struct.GLNVGtexture, ptr %27, i64 %29
  store ptr %30, ptr %3, align 8
  br label %36

31:                                               ; preds = %13
  br label %32

32:                                               ; preds = %31
  %33 = load i32, ptr %6, align 4
  %34 = add nsw i32 %33, 1
  store i32 %34, ptr %6, align 4
  br label %7, !llvm.loop !11

35:                                               ; preds = %7
  store ptr null, ptr %3, align 8
  br label %36

36:                                               ; preds = %35, %24
  %37 = load ptr, ptr %3, align 8
  ret ptr %37
}

; Function Attrs: mustprogress uwtable
define internal void @_ZL18glnvg__setUniformsP12GLNVGcontextii(ptr noundef %0, i32 noundef %1, i32 noundef %2) #4 {
  %4 = alloca ptr, align 8
  %5 = alloca i32, align 4
  %6 = alloca i32, align 4
  %7 = alloca ptr, align 8
  store ptr %0, ptr %4, align 8
  store i32 %1, ptr %5, align 4
  store i32 %2, ptr %6, align 4
  %8 = load ptr, ptr %4, align 8
  %9 = getelementptr inbounds %struct.GLNVGcontext, ptr %8, i32 0, i32 8
  %10 = load i32, ptr %9, align 4
  %11 = load i32, ptr %5, align 4
  %12 = sext i32 %11 to i64
  call void @glBindBufferRange(i32 noundef 35345, i32 noundef 0, i32 noundef %10, i64 noundef %12, i64 noundef 176)
  %13 = load i32, ptr %6, align 4
  %14 = icmp ne i32 %13, 0
  br i1 %14, label %15, label %30

15:                                               ; preds = %3
  %16 = load ptr, ptr %4, align 8
  %17 = load i32, ptr %6, align 4
  %18 = call noundef ptr @_ZL18glnvg__findTextureP12GLNVGcontexti(ptr noundef %16, i32 noundef %17)
  store ptr %18, ptr %7, align 8
  %19 = load ptr, ptr %4, align 8
  %20 = load ptr, ptr %7, align 8
  %21 = icmp ne ptr %20, null
  br i1 %21, label %22, label %26

22:                                               ; preds = %15
  %23 = load ptr, ptr %7, align 8
  %24 = getelementptr inbounds %struct.GLNVGtexture, ptr %23, i32 0, i32 1
  %25 = load i32, ptr %24, align 4
  br label %27

26:                                               ; preds = %15
  br label %27

27:                                               ; preds = %26, %22
  %28 = phi i32 [ %25, %22 ], [ 0, %26 ]
  call void @_ZL18glnvg__bindTextureP12GLNVGcontextj(ptr noundef %19, i32 noundef %28)
  %29 = load ptr, ptr %4, align 8
  call void @_ZL17glnvg__checkErrorP12GLNVGcontextPKc(ptr noundef %29, ptr noundef @.str.31)
  br label %32

30:                                               ; preds = %3
  %31 = load ptr, ptr %4, align 8
  call void @_ZL18glnvg__bindTextureP12GLNVGcontextj(ptr noundef %31, i32 noundef 0)
  br label %32

32:                                               ; preds = %30, %27
  ret void
}