; Function Attrs: mustprogress uwtable
define internal fastcc void @_ZL18glnvg__setUniformsP12GLNVGcontextii(ptr nocapture noundef %0, i32 noundef %1, i32 noundef %2) unnamed_addr #3 {
  %4 = getelementptr inbounds i8, ptr %0, i64 60
  %5 = load i32, ptr %4, align 4
  %6 = sext i32 %1 to i64
  tail call void @glBindBufferRange(i32 noundef 35345, i32 noundef 0, i32 noundef %5, i64 noundef %6, i64 noundef 176)
  %.not = icmp eq i32 %2, 0
  br i1 %.not, label %31, label %7

7:                                                ; preds = %3
  %8 = getelementptr inbounds i8, ptr %0, i64 40
  %9 = load i32, ptr %8, align 8
  %10 = icmp sgt i32 %9, 0
  br i1 %10, label %.lr.ph.i, label %_ZL18glnvg__findTextureP12GLNVGcontexti.exit.thread

.lr.ph.i:                                         ; preds = %7
  %11 = getelementptr inbounds i8, ptr %0, i64 24
  %12 = load ptr, ptr %11, align 8
  %wide.trip.count.i = zext nneg i32 %9 to i64
  br label %14

13:                                               ; preds = %14
  %indvars.iv.next.i = add nuw nsw i64 %indvars.iv.i, 1
  %exitcond.not.i = icmp eq i64 %indvars.iv.next.i, %wide.trip.count.i
  br i1 %exitcond.not.i, label %_ZL18glnvg__findTextureP12GLNVGcontexti.exit.thread, label %14, !llvm.loop !8

14:                                               ; preds = %13, %.lr.ph.i
  %indvars.iv.i = phi i64 [ 0, %.lr.ph.i ], [ %indvars.iv.next.i, %13 ]
  %15 = getelementptr inbounds %struct.GLNVGtexture, ptr %12, i64 %indvars.iv.i
  %16 = load i32, ptr %15, align 4
  %17 = icmp eq i32 %16, %2
  br i1 %17, label %_ZL18glnvg__findTextureP12GLNVGcontexti.exit, label %13

_ZL18glnvg__findTextureP12GLNVGcontexti.exit:     ; preds = %14
  %18 = getelementptr inbounds i8, ptr %15, i64 4
  %19 = load i32, ptr %18, align 4
  br label %_ZL18glnvg__findTextureP12GLNVGcontexti.exit.thread

_ZL18glnvg__findTextureP12GLNVGcontexti.exit.thread: ; preds = %13, %7, %_ZL18glnvg__findTextureP12GLNVGcontexti.exit
  %20 = phi i32 [ %19, %_ZL18glnvg__findTextureP12GLNVGcontexti.exit ], [ 0, %7 ], [ 0, %13 ]
  %21 = getelementptr inbounds i8, ptr %0, i64 136
  %22 = load i32, ptr %21, align 8
  %.not.i = icmp eq i32 %22, %20
  br i1 %.not.i, label %_ZL18glnvg__bindTextureP12GLNVGcontextj.exit, label %23

23:                                               ; preds = %_ZL18glnvg__findTextureP12GLNVGcontexti.exit.thread
  store i32 %20, ptr %21, align 8
  tail call void @glBindTexture(i32 noundef 3553, i32 noundef %20)
  br label %_ZL18glnvg__bindTextureP12GLNVGcontextj.exit

_ZL18glnvg__bindTextureP12GLNVGcontextj.exit:     ; preds = %_ZL18glnvg__findTextureP12GLNVGcontexti.exit.thread, %23
  %24 = getelementptr i8, ptr %0, i64 68
  %.val = load i32, ptr %24, align 4
  %25 = and i32 %.val, 4
  %26 = icmp eq i32 %25, 0
  br i1 %26, label %_ZL17glnvg__checkErrorP12GLNVGcontextPKc.exit, label %27

27:                                               ; preds = %_ZL18glnvg__bindTextureP12GLNVGcontextj.exit
  %28 = tail call i32 @glGetError()
  %.not.i11 = icmp eq i32 %28, 0
  br i1 %.not.i11, label %_ZL17glnvg__checkErrorP12GLNVGcontextPKc.exit, label %29

29:                                               ; preds = %27
  %30 = tail call i32 (ptr, ...) @printf(ptr noundef nonnull dereferenceable(1) @.str.18, i32 noundef %28, ptr noundef nonnull @.str.31)
  br label %_ZL17glnvg__checkErrorP12GLNVGcontextPKc.exit

31:                                               ; preds = %3
  %32 = getelementptr inbounds i8, ptr %0, i64 136
  %33 = load i32, ptr %32, align 8
  %.not.i12 = icmp eq i32 %33, 0
  br i1 %.not.i12, label %_ZL17glnvg__checkErrorP12GLNVGcontextPKc.exit, label %34

34:                                               ; preds = %31
  store i32 0, ptr %32, align 8
  tail call void @glBindTexture(i32 noundef 3553, i32 noundef 0)
  br label %_ZL17glnvg__checkErrorP12GLNVGcontextPKc.exit

_ZL17glnvg__checkErrorP12GLNVGcontextPKc.exit:    ; preds = %34, %31, %29, %27, %_ZL18glnvg__bindTextureP12GLNVGcontextj.exit
  ret void
}